; Function Attrs: mustprogress uwtable
define dso_local noundef zeroext i1 @_ZN27cmCMakePresetsGraphInternal17TestPresetsHelperERSt6vectorIN19cmCMakePresetsGraph10TestPresetESaIS2_EEPKN4Json5ValueEP11cmJSONState(ptr noundef nonnull align 1 %0, ptr noundef %1, ptr noundef %2) local_unnamed_addr #3 personality ptr @__gxx_personality_v0 {
  %4 = alloca ptr, align 8
  %5 = alloca ptr, align 8
  %6 = alloca %"class.std::function.4", align 8
  %7 = alloca %"class.cmJSONHelperBuilder::Object.74", align 8
  %8 = load atomic i8, ptr @_ZGVZN27cmCMakePresetsGraphInternal17TestPresetsHelperERSt6vectorIN19cmCMakePresetsGraph10TestPresetESaIS2_EEPKN4Json5ValueEP11cmJSONStateE6helper acquire, align 8
  %9 = icmp eq i8 %8, 0
  br i1 %9, label %10, label %25, !prof !15

10:                                               ; preds = %3
  %11 = tail call i32 @__cxa_guard_acquire(ptr nonnull @_ZGVZN27cmCMakePresetsGraphInternal17TestPresetsHelperERSt6vectorIN19cmCMakePresetsGraph10TestPresetESaIS2_EEPKN4Json5ValueEP11cmJSONStateE6helper) #17
  %.not = icmp eq i32 %11, 0
  br i1 %.not, label %25, label %12

12:                                               ; preds = %10
  %13 = getelementptr inbounds i8, ptr %6, i64 16
  %14 = getelementptr inbounds i8, ptr %6, i64 24
  %15 = getelementptr inbounds i8, ptr %6, i64 8
  store i64 0, ptr %15, align 8
  store ptr @_ZN20cmCMakePresetsErrors15INVALID_PRESETSEPKN4Json5ValueEP11cmJSONState, ptr %6, align 8
  store ptr @_ZNSt17_Function_handlerIFvPKN4Json5ValueEP11cmJSONStateEPS6_E9_M_invokeERKSt9_Any_dataOS3_OS5_, ptr %14, align 8
  store ptr @_ZNSt17_Function_handlerIFvPKN4Json5ValueEP11cmJSONStateEPS6_E10_M_managerERSt9_Any_dataRKS9_St18_Manager_operation, ptr %13, align 8
  invoke void @_ZN19cmJSONHelperBuilder6ObjectIN19cmCMakePresetsGraph10TestPresetEEC2ERKS3_(ptr noundef nonnull align 8 dereferenceable(65) %7, ptr noundef nonnull align 8 dereferenceable(65) @_ZN12_GLOBAL__N_116TestPresetHelperE)
          to label %16 unwind label %.thread

16:                                               ; preds = %12
  invoke void @_ZN19cmJSONHelperBuilder6VectorIN19cmCMakePresetsGraph10TestPresetENS_6ObjectIS2_EEEESt8functionIFbRSt6vectorIT_SaIS7_EEPKN4Json5ValueEP11cmJSONStateEES5_IFvSE_SG_EET0_(ptr dead_on_unwind nonnull writable sret(%"class.std::function.83") align 8 @_ZZN27cmCMakePresetsGraphInternal17TestPresetsHelperERSt6vectorIN19cmCMakePresetsGraph10TestPresetESaIS2_EEPKN4Json5ValueEP11cmJSONStateE6helper, ptr noundef nonnull %6, ptr noundef nonnull %7)
          to label %17 unwind label %31

17:                                               ; preds = %16
  call void @_ZN19cmJSONHelperBuilder6ObjectIN19cmCMakePresetsGraph10TestPresetEED2Ev(ptr noundef nonnull align 8 dereferenceable(65) %7) #17
  %18 = load ptr, ptr %13, align 8
  %.not.i.i = icmp eq ptr %18, null
  br i1 %.not.i.i, label %_ZNSt8functionIFvPKN4Json5ValueEP11cmJSONStateEED2Ev.exit, label %19

19:                                               ; preds = %17
  %20 = invoke noundef zeroext i1 %18(ptr noundef nonnull align 8 dereferenceable(16) %6, ptr noundef nonnull align 8 dereferenceable(16) %6, i32 noundef 3)
          to label %_ZNSt8functionIFvPKN4Json5ValueEP11cmJSONStateEED2Ev.exit unwind label %21

21:                                               ; preds = %19
  %22 = landingpad { ptr, i32 }
          catch ptr null
  %23 = extractvalue { ptr, i32 } %22, 0
  call void @__clang_call_terminate(ptr %23) #18
  unreachable

_ZNSt8functionIFvPKN4Json5ValueEP11cmJSONStateEED2Ev.exit: ; preds = %17, %19
  %24 = call i32 @__cxa_atexit(ptr nonnull @_ZNSt8functionIFbRSt6vectorIN19cmCMakePresetsGraph10TestPresetESaIS2_EEPKN4Json5ValueEP11cmJSONStateEED2Ev, ptr nonnull @_ZZN27cmCMakePresetsGraphInternal17TestPresetsHelperERSt6vectorIN19cmCMakePresetsGraph10TestPresetESaIS2_EEPKN4Json5ValueEP11cmJSONStateE6helper, ptr nonnull @__dso_handle) #17
  call void @__cxa_guard_release(ptr nonnull @_ZGVZN27cmCMakePresetsGraphInternal17TestPresetsHelperERSt6vectorIN19cmCMakePresetsGraph10TestPresetESaIS2_EEPKN4Json5ValueEP11cmJSONStateE6helper) #17
  br label %25

25:                                               ; preds = %_ZNSt8functionIFvPKN4Json5ValueEP11cmJSONStateEED2Ev.exit, %10, %3
  call void @llvm.lifetime.start.p0(i64 8, ptr nonnull %4)
  call void @llvm.lifetime.start.p0(i64 8, ptr nonnull %5)
  store ptr %1, ptr %4, align 8
  store ptr %2, ptr %5, align 8
  %26 = load ptr, ptr getelementptr inbounds (%"class.std::function.83", ptr @_ZZN27cmCMakePresetsGraphInternal17TestPresetsHelperERSt6vectorIN19cmCMakePresetsGraph10TestPresetESaIS2_EEPKN4Json5ValueEP11cmJSONStateE6helper, i64 0, i32 0, i32 1), align 8
  %.not.i.i6 = icmp eq ptr %26, null
  br i1 %.not.i.i6, label %27, label %_ZNKSt8functionIFbRSt6vectorIN19cmCMakePresetsGraph10TestPresetESaIS2_EEPKN4Json5ValueEP11cmJSONStateEEclES5_S9_SB_.exit

27:                                               ; preds = %25
  call void @_ZSt25__throw_bad_function_callv() #20
  unreachable

_ZNKSt8functionIFbRSt6vectorIN19cmCMakePresetsGraph10TestPresetESaIS2_EEPKN4Json5ValueEP11cmJSONStateEEclES5_S9_SB_.exit: ; preds = %25
  %28 = load ptr, ptr getelementptr inbounds (%"class.std::function.83", ptr @_ZZN27cmCMakePresetsGraphInternal17TestPresetsHelperERSt6vectorIN19cmCMakePresetsGraph10TestPresetESaIS2_EEPKN4Json5ValueEP11cmJSONStateE6helper, i64 0, i32 1), align 8
  %29 = call noundef zeroext i1 %28(ptr noundef nonnull align 8 dereferenceable(16) @_ZZN27cmCMakePresetsGraphInternal17TestPresetsHelperERSt6vectorIN19cmCMakePresetsGraph10TestPresetESaIS2_EEPKN4Json5ValueEP11cmJSONStateE6helper, ptr noundef nonnull align 8 dereferenceable(24) %0, ptr noundef nonnull align 8 dereferenceable(8) %4, ptr noundef nonnull align 8 dereferenceable(8) %5)
  call void @llvm.lifetime.end.p0(i64 8, ptr nonnull %4)
  call void @llvm.lifetime.end.p0(i64 8, ptr nonnull %5)
  ret i1 %29

.thread:                                          ; preds = %12
  %30 = landingpad { ptr, i32 }
          cleanup
  br label %33

31:                                               ; preds = %16
  %32 = landingpad { ptr, i32 }
          cleanup
  call void @_ZN19cmJSONHelperBuilder6ObjectIN19cmCMakePresetsGraph10TestPresetEED2Ev(ptr noundef nonnull align 8 dereferenceable(65) %7) #17
  %.pre = load ptr, ptr %13, align 8
  %.not.i.i7 = icmp eq ptr %.pre, null
  br i1 %.not.i.i7, label %_ZNSt8functionIFvPKN4Json5ValueEP11cmJSONStateEED2Ev.exit8, label %33

33:                                               ; preds = %.thread, %31
  %.pn11 = phi { ptr, i32 } [ %30, %.thread ], [ %32, %31 ]
  %34 = phi ptr [ @_ZNSt17_Function_handlerIFvPKN4Json5ValueEP11cmJSONStateEPS6_E10_M_managerERSt9_Any_dataRKS9_St18_Manager_operation, %.thread ], [ %.pre, %31 ]
  %35 = invoke noundef zeroext i1 %34(ptr noundef nonnull align 8 dereferenceable(16) %6, ptr noundef nonnull align 8 dereferenceable(16) %6, i32 noundef 3)
          to label %_ZNSt8functionIFvPKN4Json5ValueEP11cmJSONStateEED2Ev.exit8 unwind label %36

36:                                               ; preds = %33
  %37 = landingpad { ptr, i32 }
          catch ptr null
  %38 = extractvalue { ptr, i32 } %37, 0
  call void @__clang_call_terminate(ptr %38) #18
  unreachable

_ZNSt8functionIFvPKN4Json5ValueEP11cmJSONStateEED2Ev.exit8: ; preds = %31, %33
  %.pn12 = phi { ptr, i32 } [ %32, %31 ], [ %.pn11, %33 ]
  call void @__cxa_guard_abort(ptr nonnull @_ZGVZN27cmCMakePresetsGraphInternal17TestPresetsHelperERSt6vectorIN19cmCMakePresetsGraph10TestPresetESaIS2_EEPKN4Json5ValueEP11cmJSONStateE6helper) #17
  resume { ptr, i32 } %.pn12
}